; Function Attrs: nounwind uwtable
define internal i64 @H5O__fill_shared_size(ptr noundef %0, i1 noundef zeroext %1, ptr noundef %2) #0 {
  %4 = load i32, ptr %2, align 8
  %5 = add i32 %4, -3
  %switch = icmp ult i32 %5, -2
  %brmerge = or i1 %switch, %1
  br i1 %brmerge, label %13, label %6

6:                                                ; preds = %3
  %7 = tail call i64 @H5O__shared_size(ptr noundef %0, ptr noundef nonnull %2) #8
  %8 = icmp eq i64 %7, 0
  br i1 %8, label %9, label %21

9:                                                ; preds = %6
  %10 = load i64, ptr @H5E_OHDR_g, align 8
  %11 = load i64, ptr @H5E_CANTGET_g, align 8
  %12 = tail call i32 (ptr, ptr, i32, i64, i64, ptr, ...) @H5E_printf_stack(ptr noundef nonnull @.str.10, ptr noundef nonnull @__func__.H5O__fill_shared_size, i32 noundef 167, i64 noundef %10, i64 noundef %11, ptr noundef nonnull @.str.21) #8
  br label %21

13:                                               ; preds = %3
  %14 = getelementptr i8, ptr %2, i64 56
  %.val = load i64, ptr %14, align 8
  %15 = add i64 %.val, 4
  %16 = icmp eq i64 %15, 0
  br i1 %16, label %17, label %21

17:                                               ; preds = %13
  %18 = load i64, ptr @H5E_OHDR_g, align 8
  %19 = load i64, ptr @H5E_CANTGET_g, align 8
  %20 = tail call i32 (ptr, ptr, i32, i64, i64, ptr, ...) @H5E_printf_stack(ptr noundef nonnull @.str.10, ptr noundef nonnull @__func__.H5O__fill_shared_size, i32 noundef 172, i64 noundef %18, i64 noundef %19, ptr noundef nonnull @.str.22) #8
  br label %21

21:                                               ; preds = %6, %13, %17, %9
  %.0 = phi i64 [ 0, %17 ], [ %15, %13 ], [ 0, %9 ], [ %7, %6 ]
  ret i64 %.0
}